; Function Attrs: nounwind uwtable
define range(i32 -2, 1) i32 @CVSpilsGetWorkSpace(ptr noundef %0, ptr noundef writeonly captures(none) %1, ptr noundef writeonly captures(none) %2) local_unnamed_addr #0 {
  %4 = icmp eq ptr %0, null
  br i1 %4, label %5, label %6

5:                                                ; preds = %3
  tail call void (ptr, i32, ptr, ptr, ptr, ...) @cvProcessError(ptr noundef null, i32 noundef -1, ptr noundef nonnull @.str, ptr noundef nonnull @.str.13, ptr noundef nonnull @.str.2) #5
  br label %43

6:                                                ; preds = %3
  %7 = getelementptr inbounds nuw i8, ptr %0, i64 1696
  %8 = load ptr, ptr %7, align 8, !tbaa !3
  %9 = icmp eq ptr %8, null
  br i1 %9, label %10, label %11

10:                                               ; preds = %6
  tail call void (ptr, i32, ptr, ptr, ptr, ...) @cvProcessError(ptr noundef nonnull %0, i32 noundef -2, ptr noundef nonnull @.str, ptr noundef nonnull @.str.13, ptr noundef nonnull @.str.3) #5
  br label %43

11:                                               ; preds = %6
  %12 = load i32, ptr %8, align 8, !tbaa !20
  switch i32 %12, label %43 [
    i32 1, label %13
    i32 2, label %29
    i32 3, label %36
  ]

13:                                               ; preds = %11
  %14 = getelementptr inbounds nuw i8, ptr %8, i64 48
  %15 = load i32, ptr %14, align 8, !tbaa !22
  %16 = getelementptr inbounds nuw i8, ptr %0, i64 1592
  %17 = load i64, ptr %16, align 8, !tbaa !28
  %18 = add nsw i32 %15, 5
  %19 = sext i32 %18 to i64
  %20 = mul nsw i64 %17, %19
  %21 = add nsw i32 %15, 4
  %22 = mul nsw i32 %21, %15
  %23 = sext i32 %22 to i64
  %24 = add nsw i64 %23, 1
  %25 = add i64 %24, %20
  store i64 %25, ptr %1, align 8, !tbaa !29
  %26 = getelementptr inbounds nuw i8, ptr %0, i64 1600
  %27 = load i64, ptr %26, align 8, !tbaa !30
  %28 = mul nsw i64 %27, %19
  store i64 %28, ptr %2, align 8, !tbaa !29
  br label %43

29:                                               ; preds = %11
  %30 = getelementptr inbounds nuw i8, ptr %0, i64 1592
  %31 = load i64, ptr %30, align 8, !tbaa !28
  %32 = mul nsw i64 %31, 9
  store i64 %32, ptr %1, align 8, !tbaa !29
  %33 = getelementptr inbounds nuw i8, ptr %0, i64 1600
  %34 = load i64, ptr %33, align 8, !tbaa !30
  %35 = mul nsw i64 %34, 9
  store i64 %35, ptr %2, align 8, !tbaa !29
  br label %43

36:                                               ; preds = %11
  %37 = getelementptr inbounds nuw i8, ptr %0, i64 1592
  %38 = load i64, ptr %37, align 8, !tbaa !28
  %39 = mul nsw i64 %38, 11
  store i64 %39, ptr %1, align 8, !tbaa !29
  %40 = getelementptr inbounds nuw i8, ptr %0, i64 1600
  %41 = load i64, ptr %40, align 8, !tbaa !30
  %42 = mul nsw i64 %41, 11
  store i64 %42, ptr %2, align 8, !tbaa !29
  br label %43

43:                                               ; preds = %11, %13, %29, %36, %10, %5
  %.0 = phi i32 [ -1, %5 ], [ -2, %10 ], [ 0, %36 ], [ 0, %29 ], [ 0, %13 ], [ 0, %11 ]
  ret i32 %.0
}